target datalayout = "e-m:e-p270:32:32-p271:32:32-p272:64:64-i64:64-i128:128-f80:128-n8:16:32:64-S128"
target triple = "x86_64-pc-linux-gnu"

%struct.option = type { i32, i32, ptr, ptr, ptr, ptr, i32, ptr, i64, ptr, i64, ptr }

@.str.46 = private unnamed_addr constant [19 x i8] c"builtin/describe.c\00", align 1
@.str.51 = private unnamed_addr constant [44 x i8] c"option callback does not expect an argument\00", align 1

; Function Attrs: nounwind uwtable
define internal i32 @option_parse_exact_match(ptr noundef %0, ptr noundef %1, i32 noundef %2) #0 {
  %4 = alloca ptr, align 8
  %5 = alloca ptr, align 8
  %6 = alloca i32, align 4
  %7 = alloca ptr, align 8
  store ptr %0, ptr %4, align 8, !tbaa !64
  store ptr %1, ptr %5, align 8, !tbaa !11
  store i32 %2, ptr %6, align 4, !tbaa !4
  call void @llvm.lifetime.start.p0(i64 8, ptr %7) #9
  %8 = load ptr, ptr %4, align 8, !tbaa !64
  %9 = getelementptr inbounds nuw %struct.option, ptr %8, i32 0, i32 3
  %10 = load ptr, ptr %9, align 8, !tbaa !20
  store ptr %10, ptr %7, align 8, !tbaa !66
  br label %11

11:                                               ; preds = %3
  %12 = load ptr, ptr %5, align 8, !tbaa !11
  %13 = icmp ne ptr %12, null
  br i1 %13, label %14, label %15

14:                                               ; preds = %11
  call void (ptr, i32, ptr, ...) @BUG_fl(ptr noundef @.str.46, i32 noundef 573, ptr noundef @.str.51) #10
  unreachable

15:                                               ; preds = %11
  br label %16

16:                                               ; preds = %15
  br label %17

17:                                               ; preds = %16
  %18 = load i32, ptr %6, align 4, !tbaa !4
  %19 = icmp ne i32 %18, 0
  %20 = select i1 %19, i32 10, i32 0
  %21 = load ptr, ptr %7, align 8, !tbaa !66
  store i32 %20, ptr %21, align 4, !tbaa !4
  call void @llvm.lifetime.end.p0(i64 8, ptr %7) #9
  ret i32 0
}