; Function Attrs: nounwind uwtable
define internal noundef i32 @option_parse_exact_match(ptr noundef readonly captures(none) %0, ptr noundef readnone %1, i32 noundef %2) #0 {
  %.not = icmp eq ptr %1, null
  br i1 %.not, label %5, label %4

4:                                                ; preds = %3
  tail call void (ptr, i32, ptr, ...) @BUG_fl(ptr noundef nonnull @.str.46, i32 noundef 573, ptr noundef nonnull @.str.51) #17
  unreachable

5:                                                ; preds = %3
  %6 = getelementptr inbounds nuw i8, ptr %0, i64 16
  %7 = load ptr, ptr %6, align 8, !tbaa !15
  %.not3 = icmp eq i32 %2, 0
  %8 = select i1 %.not3, i32 0, i32 10
  store i32 %8, ptr %7, align 4, !tbaa !4
  ret i32 0
}